                              1 ;****************************************************************
                              2 ; This file is auto-generated by ddmake from asteroid_tether.toml
                              3 ; *** DO NOT EDIT ***
                              4 ;****************************************************************
                              5 
                              6 ; Start of chip memory mapping
                     F800     7 STRTADD = 0xf800
                              8 
                              9 ; 2K ROM
                     0800    10 ROMSIZE = 0x0800
                             11 
                             12 ; Start of ram, needs 7 bytes starting here
                             13 ; On the 6502, you can usually you can count on there being RAM in page 0
                     0000    14 RAMSTRT = 0x0000
                             15 
                             16 ; Start of stack, needs some memory below this address
                             17 ; On the 6502, this is in page 1, so this actually represents
                             18 ; address 0x0100+SSTACK
                     00FF    19 SSTACK = 0x00ff
                             20 
                             21 ; delay factor
                     0180    22 BIGDEL = 0x0180
                             23 
                             24         .include "../core/dd.def"
                              1 
                     0000     2 ROMEND  .equ    STRTADD+ROMSIZE
                              3 
                              4 
                             25         .include "../core/6502.def"
                              1 ; Same for all 6502s
                     FFFA     2 VECTORS .equ    0xfffa      ; location of Vector table
                             26 
                             27 ;------- region1  -----------------------------------------------
                             28 
                             29         .bank   region1 (base=STRTADD, size=VECTORS-STRTADD)
                             30         .area   region1 (ABS, BANK=region1)
                             31 
                             32 ;
                             33 ;       START CODE
                             34 ;
   F800                      35 START:
   F800 78            [ 2]   36         sei              ; Disable interrupts - we don't handle them
   F801 A2 FF         [ 2]   37         ldx     #SSTACK  ; set up the stack
   F803 9A            [ 2]   38         txs
   F804 D8            [ 2]   39         cld              ; No Decimal
                             40 ;       YOUR CODE CAN GO HERE
   F805 4C 08 F8      [ 3]   41         jmp     INIT
                             42 
                             43         .include "../core/6502_main.asm"
                              1 ;;;;;;;;;;;;;;;;;;;;;;;;;;;;;;;;;;;;;;;;;;;;;;;;;;;;;;;;;;;;;;;;;;;;;;;;;;;
                              2 ; RAM Variables 
                              3 ;;;;;;;;;;;;;;;;;;;;;;;;;;;;;;;;;;;;;;;;;;;;;;;;;;;;;;;;;;;;;;;;;;;;;;;;;;;
                              4 
                     0000     5 OUTBUF  .equ    RAMSTRT         ;buffer for output states
                     0001     6 B       .equ    RAMSTRT+0x01    ;general purpose
                     0002     7 C       .equ    RAMSTRT+0x02    ;general purpose
                     0003     8 CMDBUF0 .equ    RAMSTRT+0x03    ;command buffer
                     0004     9 CMDBUF1 .equ    RAMSTRT+0x04    ;command buffer
                     0005    10 CMDBUF2 .equ    RAMSTRT+0x05    ;command buffer
                     0006    11 CMDBUF3 .equ    RAMSTRT+0x06    ;command buffer
                             12 
                             13 ; I2C ADDRESSING
                     0011    14 I2CRADR .equ    0x11        ; I2C read address  - I2C address 0x08
                     0010    15 I2CWADR .equ    0x10        ; I2C write address - I2C address 0x08
                             16 
   F808                      17 INIT:
   F808 A9 00         [ 2]   18         lda     #0x00
   F80A 85 00         [ 3]   19         sta     OUTBUF
                             20 
                             21 ; Main routine
   F80C                      22 MAIN:
   F80C 20 0B F9      [ 6]   23         jsr     EVERY
   F80F 20 C6 F8      [ 6]   24         jsr     POLL
   F812 B0 F8         [ 4]   25         bcs     MAIN
   F814 A9 01         [ 2]   26         lda     #BIGDEL>>8
   F816 85 01         [ 3]   27         sta     B
   F818 A9 80         [ 2]   28         lda     #BIGDEL%256
   F81A 85 02         [ 3]   29         sta     C
   F81C                      30 MLOOP:
   F81C A5 02         [ 3]   31         lda     C
   F81E F0 05         [ 4]   32         beq     DECBOTH
   F820 C6 02         [ 5]   33         dec     C
   F822 4C 1C F8      [ 3]   34         jmp     MLOOP
   F825                      35 DECBOTH:
   F825 A5 01         [ 3]   36         lda     B
   F827 F0 E3         [ 4]   37         beq     MAIN
   F829 C6 02         [ 5]   38         dec     C
   F82B C6 01         [ 5]   39         dec     B
   F82D 4C 1C F8      [ 3]   40         jmp     MLOOP
                             41 
                             42 ; Delay for half a bit time
   F830 60            [ 6]   43 I2CDLY: rts             ; TBD - this is plenty?
                             44 
                             45 ; I2C Start Condition
   F831                      46 I2CSTART:
   F831 20 30 F9      [ 6]   47         jsr    CLRSDA      
   F834 20 19 F9      [ 6]   48         jsr    CLRSCL
   F837 60            [ 6]   49         rts
                             50 
                             51 ; I2C Stop Condition
                             52 ; Uses HL
                             53 ; Destroys A
   F838                      54 I2CSTOP:
   F838 20 30 F9      [ 6]   55         jsr    CLRSDA
   F83B 20 0C F9      [ 6]   56         jsr    SETSCL
   F83E 20 23 F9      [ 6]   57         jsr    SETSDA
   F841 60            [ 6]   58         rts
                             59         
   F842                      60 I2CRBIT:
   F842 20 23 F9      [ 6]   61         jsr     SETSDA
   F845 20 0C F9      [ 6]   62         jsr     SETSCL
   F848 20 3D F9      [ 6]   63         jsr     READSDA ; sets/clears carry flag
   F84B 20 19 F9      [ 6]   64         jsr     CLRSCL
   F84E 60            [ 6]   65         rts             ; carry flag still good here
                             66 
   F84F                      67 I2CWBIT:
   F84F 90 06         [ 4]   68         bcc     DOCLR
   F851 20 23 F9      [ 6]   69         jsr     SETSDA
   F854 4C 5A F8      [ 3]   70         jmp     AHEAD
   F857                      71 DOCLR:
   F857 20 30 F9      [ 6]   72         jsr     CLRSDA
   F85A                      73 AHEAD:
   F85A 20 0C F9      [ 6]   74         jsr     SETSCL
   F85D 20 19 F9      [ 6]   75         jsr     CLRSCL
   F860 60            [ 6]   76         rts
                             77         
   F861                      78 I2CWBYTE:
   F861 48            [ 3]   79         pha
   F862 A9 08         [ 2]   80         lda     #0x08
   F864 85 01         [ 3]   81         sta     B
   F866 68            [ 4]   82         pla
   F867                      83 ILOOP:
   F867 2A            [ 2]   84         rol
   F868 48            [ 3]   85         pha
   F869 20 4F F8      [ 6]   86         jsr     I2CWBIT
   F86C 68            [ 4]   87         pla
   F86D C6 01         [ 5]   88         dec     B
   F86F D0 F6         [ 4]   89         bne     ILOOP
   F871 20 42 F8      [ 6]   90         jsr     I2CRBIT
   F874 60            [ 6]   91         rts
                             92         
   F875                      93 I2CRBYTE:
   F875 A9 08         [ 2]   94         lda     #0x08
   F877 85 01         [ 3]   95         sta     B
   F879 A9 00         [ 2]   96         lda     #0x00
   F87B 85 02         [ 3]   97         sta     C
   F87D                      98 LOOP3:
   F87D 20 42 F8      [ 6]   99         jsr     I2CRBIT     ; get bit in carry flag
   F880 26 02         [ 5]  100         rol     C           ; rotate carry into bit0 of C register
   F882 C6 01         [ 5]  101         dec     B
   F884 D0 F7         [ 4]  102         bne     LOOP3
   F886 18            [ 2]  103         clc                 ; clear carry flag              
   F887 20 4F F8      [ 6]  104         jsr     I2CWBIT
   F88A A5 02         [ 3]  105         lda     C
   F88C 60            [ 6]  106         rts
                            107 
   F88D                     108 I2CRREQ:
   F88D 20 31 F8      [ 6]  109         jsr     I2CSTART
   F890 A9 11         [ 2]  110         lda         #I2CRADR
   F892 20 61 F8      [ 6]  111         jsr     I2CWBYTE
   F895 B0 17         [ 4]  112         bcs     SKIP
   F897 20 75 F8      [ 6]  113         jsr     I2CRBYTE
   F89A 85 03         [ 3]  114         sta     CMDBUF0
   F89C 20 75 F8      [ 6]  115         jsr     I2CRBYTE
   F89F 85 04         [ 3]  116         sta     CMDBUF1
   F8A1 20 75 F8      [ 6]  117         jsr     I2CRBYTE
   F8A4 85 05         [ 3]  118         sta     CMDBUF2
   F8A6 20 75 F8      [ 6]  119         jsr     I2CRBYTE
   F8A9 85 06         [ 3]  120         sta     CMDBUF3
   F8AB 4C C2 F8      [ 3]  121         jmp     ENDI2C
                            122     
   F8AE                     123 SKIP:                       ; If no device present, fake an idle response
   F8AE A9 2E         [ 2]  124         lda     #0x2e  ; '.'
   F8B0 85 03         [ 3]  125         sta     CMDBUF0
   F8B2 4C C2 F8      [ 3]  126         jmp     ENDI2C
                            127 
   F8B5                     128 I2CSRESP:
   F8B5 48            [ 3]  129         pha
   F8B6 20 31 F8      [ 6]  130         jsr     I2CSTART
   F8B9 A9 10         [ 2]  131         lda     #I2CWADR
   F8BB 20 61 F8      [ 6]  132         jsr     I2CWBYTE
   F8BE 68            [ 4]  133         pla
   F8BF 20 61 F8      [ 6]  134         jsr     I2CWBYTE
   F8C2                     135 ENDI2C:
   F8C2 20 38 F8      [ 6]  136         jsr     I2CSTOP
   F8C5 60            [ 6]  137         rts
                            138 
   F8C6                     139 POLL:
   F8C6 20 8D F8      [ 6]  140         jsr     I2CRREQ
   F8C9 A5 03         [ 3]  141         lda     CMDBUF0
   F8CB C9 52         [ 2]  142         cmp     #0x52           ; 'R' - Read memory
   F8CD F0 0A         [ 4]  143         beq     MREAD
   F8CF C9 57         [ 2]  144         cmp     #0x57           ; 'W' - Write memory
   F8D1 F0 10         [ 4]  145         beq     MWRITE
   F8D3 C9 43         [ 2]  146         cmp     #0x43           ; 'C' - Call subroutine
   F8D5 F0 28         [ 4]  147         beq     REMCALL
   F8D7 18            [ 2]  148         clc
   F8D8 60            [ 6]  149         rts
                            150 
   F8D9                     151 MREAD:
   F8D9 20 F1 F8      [ 6]  152         jsr     LOADBC
   F8DC A0 00         [ 2]  153         ldy     #0x00
   F8DE B1 01         [ 6]  154         lda     [B],Y
   F8E0 4C FA F8      [ 3]  155         jmp     SRESP
   F8E3                     156 MWRITE:
   F8E3 20 F1 F8      [ 6]  157         jsr     LOADBC
   F8E6 A5 06         [ 3]  158         lda     CMDBUF3
   F8E8 A0 00         [ 2]  159         ldy     #0x00
   F8EA 91 01         [ 6]  160         sta     [B],Y
   F8EC A9 57         [ 2]  161         lda     #0x57   ;'W'
   F8EE 4C FA F8      [ 3]  162         jmp     SRESP
   F8F1                     163 LOADBC:
   F8F1 A5 05         [ 3]  164         lda     CMDBUF2
   F8F3 85 01         [ 3]  165         sta     B
   F8F5 A5 04         [ 3]  166         lda     CMDBUF1
   F8F7 85 02         [ 3]  167         sta     C
   F8F9 60            [ 6]  168         rts
                            169         
   F8FA                     170 SRESP:
   F8FA 20 B5 F8      [ 6]  171         jsr    I2CSRESP
   F8FD                     172 RHERE:
   F8FD 38            [ 2]  173         sec
   F8FE 60            [ 6]  174         rts
   F8FF                     175 REMCALL:
   F8FF A9 F7         [ 2]  176         lda     #>(START-1)
   F901 48            [ 3]  177         pha
   F902 A9 FF         [ 2]  178         lda     #<(START-1)
   F904 48            [ 3]  179         pha
   F905 20 F1 F8      [ 6]  180         jsr     LOADBC
   F908 6C 01 00      [ 5]  181         jmp     [B]
                            182         
                            183 ;;;;;;;;;;
                            184 
                            185 
                             44 ;
                             45 ;       EVERY CODE
                             46 ;
   F90B                      47 EVERY:
                             48 ;       YOUR CODE CAN GO HERE
   F90B 60            [ 6]   49         rts
                             50 
                             51         .include "../io/asteroid-tether.asm"
                              1 
                              2 ; SCL  - WRITE 0x3200, bit0 (0x01) 2 player start lamp - active low only because led is wired to +5V
                              3 ; DOUT - WRITE 0x3200, bit1 (0x02) 1 player start lamp - active low only because led is wired to +5V
                              4 ; DIN  - READ  0x2405, bit7 (0x80) thrust button - inverted on input
                              5 
                     2800     6 DIP7    .equ    0x2800  ;bit0 = DIP switch 7
                     3200     7 LEDS    .equ    0x3200  ;bit0 = 2 player start lamp
                              8                         ;bit1 = 1 player start lamp
                              9         
                     0000    10 LEDBUF  .equ    OUTBUF  ;buffer for lamps
                             11 
   F90C A5 00         [ 3]   12 SETSCL: lda     LEDBUF
   F90E 09 01         [ 2]   13         ora     #0x01
   F910 85 00         [ 3]   14         sta     LEDBUF
   F912 8D 00 32      [ 4]   15         sta     LEDS
   F915 20 30 F8      [ 6]   16         jsr     I2CDLY
   F918 60            [ 6]   17         rts
                             18 
   F919 A5 00         [ 3]   19 CLRSCL: lda     LEDBUF
   F91B 29 FE         [ 2]   20         and     #0xfe
   F91D 85 00         [ 3]   21         sta     LEDBUF
   F91F 8D 00 32      [ 4]   22         sta     LEDS
   F922 60            [ 6]   23         rts
                             24     
   F923 A5 00         [ 3]   25 SETSDA: lda     LEDBUF
   F925 29 FD         [ 2]   26         and     #0xfd
   F927 85 00         [ 3]   27         sta     LEDBUF
   F929 8D 00 32      [ 4]   28         sta     LEDS
   F92C 20 30 F8      [ 6]   29         jsr     I2CDLY
   F92F 60            [ 6]   30         rts
                             31 
   F930 A5 00         [ 3]   32 CLRSDA: lda     LEDBUF
   F932 09 02         [ 2]   33         ora     #0x02
   F934 85 00         [ 3]   34         sta     LEDBUF
   F936 8D 00 32      [ 4]   35         sta     LEDS
   F939 20 30 F8      [ 6]   36         jsr     I2CDLY
   F93C 60            [ 6]   37         rts
                             38 
   F93D                      39 READSDA:        
   F93D AD 00 28      [ 4]   40         lda DIP7
   F940 6A            [ 2]   41         ror         
   F941 60            [ 6]   42         rts
                             43      
                             44     
                             52 ;
                             53 ;       NMI HANDLER
                             54 ;
   F942                      55 NMI:
   F942 40            [ 6]   56         rti
                             57 
                             58 
                             59 ;------- region2  -----------------------------------------------
                             60 
                             61         .bank   region2 (base=VECTORS, size=ROMSIZE-VECTORS)
                             62         .area   region2 (ABS, BANK=region2)
                             63 
                             64         .include "../core/6502_vectors.asm"
   FFFA 42 F9                 1         .dw     NMI
   FFFC 00 F8                 2         .dw     START
   FFFE 00 F8                 3         .dw     START
                             65 
